target datalayout = "e-m:e-p270:32:32-p271:32:32-p272:64:64-i64:64-i128:128-f80:128-n8:16:32:64-S128"
target triple = "x86_64-pc-linux-gnu"

; Function Attrs: nounwind uwtable
define internal void @draw_sample_point_rgba_full(ptr noundef %0, i32 noundef %1, i32 noundef %2, ptr noundef %3, ptr noundef %4, i32 noundef %5) #1 {
  %7 = alloca ptr, align 8
  %8 = alloca i32, align 4
  %9 = alloca i32, align 4
  %10 = alloca ptr, align 8
  %11 = alloca ptr, align 8
  %12 = alloca i32, align 4
  %13 = alloca i32, align 4
  store ptr %0, ptr %7, align 8, !tbaa !69
  store i32 %1, ptr %8, align 4, !tbaa !49
  store i32 %2, ptr %9, align 4, !tbaa !49
  store ptr %3, ptr %10, align 8, !tbaa !92
  store ptr %4, ptr %11, align 8, !tbaa !69
  store i32 %5, ptr %12, align 4, !tbaa !49
  call void @llvm.lifetime.start.p0(i64 4, ptr %13) #13
  %14 = load ptr, ptr %11, align 8, !tbaa !69
  %15 = load i32, ptr %14, align 1, !tbaa !89
  store i32 %15, ptr %13, align 4, !tbaa !49
  %16 = load i32, ptr %12, align 4, !tbaa !49
  %17 = icmp sge i32 %16, 0
  br i1 %17, label %18, label %30

18:                                               ; preds = %6
  %19 = load i32, ptr %12, align 4, !tbaa !49
  %20 = load i32, ptr %8, align 4, !tbaa !49
  %21 = icmp slt i32 %19, %20
  br i1 %21, label %22, label %30

22:                                               ; preds = %18
  %23 = load i32, ptr %13, align 4, !tbaa !49
  %24 = load ptr, ptr %7, align 8, !tbaa !69
  %25 = load i32, ptr %12, align 4, !tbaa !49
  %26 = load i32, ptr %9, align 4, !tbaa !49
  %27 = mul nsw i32 %25, %26
  %28 = sext i32 %27 to i64
  %29 = getelementptr inbounds i8, ptr %24, i64 %28
  store i32 %23, ptr %29, align 1, !tbaa !89
  br label %30

30:                                               ; preds = %22, %18, %6
  call void @llvm.lifetime.end.p0(i64 4, ptr %13) #13
  ret void
}